Certificate:
    Data:
        Version: 3 (0x2)
        Serial Number: 0 (0x0)
        Signature Algorithm: sha1WithRSAEncryption
        Issuer: C=CN, ST=Beijing, O=OpenSourceXpress Ltd., OU=security, CN=Root CA/emailAddress=worldhello.net@gmail.com
        Validity
            Not Before: Aug  1 04:55:24 2005 GMT
            Not After : Jul 25 04:55:24 2035 GMT
        Subject: C=CN, ST=Beijing, O=OpenSourceXpress Ltd., OU=security, CN=Root CA/emailAddress=worldhello.net@gmail.com
        Subject Public Key Info:
            Public Key Algorithm: rsaEncryption
            RSA Public Key: (1024 bit)
                Modulus (1024 bit):
                    00:c4:dd:42:2e:36:f7:51:d6:8f:36:01:18:ee:ae:
                    e6:36:44:ef:d1:c5:d4:91:11:cf:98:1b:4c:69:af:
                    a1:3d:a5:48:13:b2:a4:9f:1c:79:23:63:e6:d9:49:
                    dc:04:6f:b1:0a:da:4f:9b:55:58:b7:57:a0:a2:a7:
                    de:cf:e6:81:97:2f:24:e6:d9:0b:16:76:2e:68:4e:
                    c4:b6:d6:45:79:1b:cc:d5:49:03:f8:24:81:bf:73:
                    59:7a:c9:76:a1:a4:96:66:58:9a:41:43:de:4d:d4:
                    41:41:9f:8e:8a:01:e1:d4:f8:6d:72:4e:dc:1a:0e:
                    87:b8:25:10:fe:b0:d2:af:4d
                Exponent: 65537 (0x10001)
        X509v3 extensions:
            X509v3 Subject Key Identifier: 
                14:FF:E3:77:2F:9A:8D:A8:37:43:F5:51:9F:A4:1A:A3:0F:4F:4F:18
            X509v3 Authority Key Identifier: 
                keyid:14:FF:E3:77:2F:9A:8D:A8:37:43:F5:51:9F:A4:1A:A3:0F:4F:4F:18
                DirName:/C=CN/ST=Beijing/O=OpenSourceXpress Ltd./OU=security/CN=Root CA/emailAddress=worldhello.net@gmail.com
                serial:00

            X509v3 Basic Constraints: 
                CA:TRUE
    Signature Algorithm: sha1WithRSAEncryption
        3b:2c:5d:41:87:56:84:66:2b:73:78:9a:de:69:7f:89:65:e0:
        f3:2a:d7:2c:bb:4f:75:42:1e:89:b2:e9:d7:c6:a0:65:a7:84:
        8c:50:3d:0d:c4:cf:23:a3:98:6f:dc:b8:4d:b9:40:f3:ff:e9:
        9c:c4:87:61:ac:f5:99:06:29:e1:9c:b1:c3:fc:08:c6:57:a3:
        92:84:3b:97:06:0c:e6:a9:1f:53:b7:65:2d:a7:5c:c8:79:4f:
        11:ff:a1:52:25:23:8b:94:a2:2d:50:26:0b:13:fb:ce:49:33:
        a0:1a:01:21:99:9b:31:71:c9:27:0d:6f:68:d5:ab:3b:b4:df:
        a0:57
-----BEGIN CERTIFICATE-----
MIIDgDCCAumgAwIBAgIBADANBgkqhkiG9w0BAQUFADCBjTELMAkGA1UEBhMCQ04x
EDAOBgNVBAgTB0JlaWppbmcxHjAcBgNVBAoTFU9wZW5Tb3VyY2VYcHJlc3MgTHRk
LjERMA8GA1UECxMIc2VjdXJpdHkxEDAOBgNVBAMTB1Jvb3QgQ0ExJzAlBgkqhkiG
9w0BCQEWGHdvcmxkaGVsbG8ubmV0QGdtYWlsLmNvbTAeFw0wNTA4MDEwNDU1MjRa
Fw0zNTA3MjUwNDU1MjRaMIGNMQswCQYDVQQGEwJDTjEQMA4GA1UECBMHQmVpamlu
ZzEeMBwGA1UEChMVT3BlblNvdXJjZVhwcmVzcyBMdGQuMREwDwYDVQQLEwhzZWN1
cml0eTEQMA4GA1UEAxMHUm9vdCBDQTEnMCUGCSqGSIb3DQEJARYYd29ybGRoZWxs
by5uZXRAZ21haWwuY29tMIGfMA0GCSqGSIb3DQEBAQUAA4GNADCBiQKBgQDE3UIu
NvdR1o82ARjuruY2RO/RxdSREc+YG0xpr6E9pUgTsqSfHHkjY+bZSdwEb7EK2k+b
VVi3V6Cip97P5oGXLyTm2QsWdi5oTsS21kV5G8zVSQP4JIG/c1l6yXahpJZmWJpB
Q95N1EFBn46KAeHU+G1yTtwaDoe4JRD+sNKvTQIDAQABo4HtMIHqMB0GA1UdDgQW
BBQU/+N3L5qNqDdD9VGfpBqjD09PGDCBugYDVR0jBIGyMIGvgBQU/+N3L5qNqDdD
9VGfpBqjD09PGKGBk6SBkDCBjTELMAkGA1UEBhMCQ04xEDAOBgNVBAgTB0JlaWpp
bmcxHjAcBgNVBAoTFU9wZW5Tb3VyY2VYcHJlc3MgTHRkLjERMA8GA1UECxMIc2Vj
dXJpdHkxEDAOBgNVBAMTB1Jvb3QgQ0ExJzAlBgkqhkiG9w0BCQEWGHdvcmxkaGVs
bG8ubmV0QGdtYWlsLmNvbYIBADAMBgNVHRMEBTADAQH/MA0GCSqGSIb3DQEBBQUA
A4GBADssXUGHVoRmK3N4mt5pf4ll4PMq1yy7T3VCHomy6dfGoGWnhIxQPQ3EzyOj
mG/cuE25QPP/6ZzEh2Gs9ZkGKeGcscP8CMZXo5KEO5cGDOapH1O3ZS2nXMh5TxH/
oVIlI4uUoi1QJgsT+85JM6AaASGZmzFxyScNb2jVqzu036BX
-----END CERTIFICATE-----
