Certificate:
    Data:
        Version: 3 (0x2)
        Serial Number: 22 (0x16)
        Signature Algorithm: sha1WithRSAEncryption
        Issuer: C=CN, ST=Beijing, O=OpenSourceXpress Ltd., OU=security, CN=Root CA/emailAddress=worldhello.net@gmail.com
        Validity
            Not Before: Aug 31 06:08:09 2009 GMT
            Not After : Aug 29 06:08:09 2019 GMT
        Subject: C=CN, ST=Beijing, L=Beijing, O=Foo Bar, OU=rd, CN=mail.foo.bar/emailAddress=root@foo.bar
        Subject Public Key Info:
            Public Key Algorithm: rsaEncryption
            RSA Public Key: (1024 bit)
                Modulus (1024 bit):
                    00:ce:c3:59:80:21:26:93:98:0d:cd:16:72:c9:c0:
                    96:dc:3c:aa:b8:9b:8b:54:4f:22:22:d8:ea:2a:80:
                    51:a8:27:c3:4f:13:94:6f:1d:24:c2:b9:2b:6f:2c:
                    5c:f4:8c:55:d2:cd:cb:65:48:db:62:05:16:c8:f4:
                    e1:36:05:23:28:e6:8a:94:7d:4d:52:78:dd:96:4b:
                    09:ab:62:7c:69:6e:3b:d8:8a:ee:19:b0:ff:66:60:
                    d8:ec:b0:08:08:b5:c7:21:90:46:92:46:0a:35:e9:
                    f2:39:de:a1:08:1c:e5:a2:ce:ee:e9:bc:b4:57:d2:
                    12:54:5d:c0:fb:fe:d0:41:01
                Exponent: 65537 (0x10001)
        X509v3 extensions:
            X509v3 Basic Constraints: 
                CA:FALSE
            Netscape Comment: 
                OpenSSL Generated Certificate
            X509v3 Subject Key Identifier: 
                F7:61:AE:DB:37:E2:17:FE:C2:B3:90:73:B2:78:1B:37:2A:10:E4:BB
            X509v3 Authority Key Identifier: 
                keyid:14:FF:E3:77:2F:9A:8D:A8:37:43:F5:51:9F:A4:1A:A3:0F:4F:4F:18

    Signature Algorithm: sha1WithRSAEncryption
        3a:30:48:a1:13:36:6a:c8:d9:bb:4c:14:2c:7f:0d:7c:be:c5:
        23:83:83:ea:c1:b2:38:73:b6:b6:bd:ee:62:c7:a3:b2:04:3b:
        ea:23:1d:55:a4:93:1e:9b:6a:8a:7a:92:c6:1a:8f:f0:e6:e6:
        ef:8f:91:33:5e:33:bf:18:a8:1d:27:ea:0c:ae:44:ad:31:67:
        1c:5b:1b:8f:92:76:20:ef:d7:c7:9c:da:33:3e:67:d5:ff:7d:
        d4:e9:b8:61:ed:67:1c:dc:17:d9:56:6f:74:d5:7d:29:21:d8:
        a9:77:7a:78:b1:74:03:3a:b6:03:51:c4:9a:7e:93:5d:3b:ec:
        d1:a7
-----BEGIN CERTIFICATE-----
MIIDBDCCAm2gAwIBAgIBFjANBgkqhkiG9w0BAQUFADCBjTELMAkGA1UEBhMCQ04x
EDAOBgNVBAgTB0JlaWppbmcxHjAcBgNVBAoTFU9wZW5Tb3VyY2VYcHJlc3MgTHRk
LjERMA8GA1UECxMIc2VjdXJpdHkxEDAOBgNVBAMTB1Jvb3QgQ0ExJzAlBgkqhkiG
9w0BCQEWGHdvcmxkaGVsbG8ubmV0QGdtYWlsLmNvbTAeFw0wOTA4MzEwNjA4MDla
Fw0xOTA4MjkwNjA4MDlaMIGEMQswCQYDVQQGEwJDTjEQMA4GA1UECBMHQmVpamlu
ZzEQMA4GA1UEBxMHQmVpamluZzEQMA4GA1UEChMHRm9vIEJhcjELMAkGA1UECxMC
cmQxFTATBgNVBAMTDG1haWwuZm9vLmJhcjEbMBkGCSqGSIb3DQEJARYMcm9vdEBm
b28uYmFyMIGfMA0GCSqGSIb3DQEBAQUAA4GNADCBiQKBgQDOw1mAISaTmA3NFnLJ
wJbcPKq4m4tUTyIi2OoqgFGoJ8NPE5RvHSTCuStvLFz0jFXSzctlSNtiBRbI9OE2
BSMo5oqUfU1SeN2WSwmrYnxpbjvYiu4ZsP9mYNjssAgItcchkEaSRgo16fI53qEI
HOWizu7pvLRX0hJUXcD7/tBBAQIDAQABo3sweTAJBgNVHRMEAjAAMCwGCWCGSAGG
+EIBDQQfFh1PcGVuU1NMIEdlbmVyYXRlZCBDZXJ0aWZpY2F0ZTAdBgNVHQ4EFgQU
92Gu2zfiF/7Cs5BzsngbNyoQ5LswHwYDVR0jBBgwFoAUFP/jdy+ajag3Q/VRn6Qa
ow9PTxgwDQYJKoZIhvcNAQEFBQADgYEAOjBIoRM2asjZu0wULH8NfL7FI4OD6sGy
OHO2tr3uYsejsgQ76iMdVaSTHptqinqSxhqP8Obm74+RM14zvxioHSfqDK5ErTFn
HFsbj5J2IO/Xx5zaMz5n1f991Om4Ye1nHNwX2VZvdNV9KSHYqXd6eLF0Azq2A1HE
mn6TXTvs0ac=
-----END CERTIFICATE-----
